; Function Attrs: nounwind uwtable
define noalias nonnull ptr @l_Lean_PersistentHashMap_mkCollisionNode___rarg(ptr noundef %0, ptr noundef %1, ptr noundef %2, ptr noundef %3) #2 {
  %5 = load ptr, ptr @l_Lean_PersistentHashMap_mkCollisionNode___rarg___closed__1, align 8, !tbaa !9
  %6 = tail call ptr @lean_array_push(ptr noundef %5, ptr noundef %0) #7
  %7 = tail call ptr @lean_array_push(ptr noundef %6, ptr noundef %2) #7
  %8 = tail call ptr @lean_array_push(ptr noundef %5, ptr noundef %1) #7
  %9 = tail call ptr @lean_array_push(ptr noundef %8, ptr noundef %3) #7
  tail call void @lean_inc_heartbeat() #7
  %10 = tail call noalias ptr @mi_malloc_small(i64 noundef 24) #7
  %11 = icmp eq ptr %10, null
  br i1 %11, label %12, label %lean_alloc_ctor.exit

12:                                               ; preds = %4
  tail call void @lean_internal_panic_out_of_memory() #8
  unreachable

lean_alloc_ctor.exit:                             ; preds = %4
  %13 = getelementptr inbounds nuw i8, ptr %10, i64 4
  store i32 1, ptr %10, align 4, !tbaa !4
  store i32 16908312, ptr %13, align 4
  %14 = getelementptr inbounds nuw i8, ptr %10, i64 8
  store ptr %7, ptr %14, align 8, !tbaa !9
  %15 = getelementptr inbounds nuw i8, ptr %10, i64 16
  store ptr %9, ptr %15, align 8, !tbaa !9
  ret ptr %10
}